; Function Attrs: mustprogress nofree nounwind uwtable
define void @fstWriterSetAttrEnd(ptr noundef captures(address_is_null) %0) local_unnamed_addr #14 {
  %.not = icmp eq ptr %0, null
  br i1 %.not, label %9, label %2

2:                                                ; preds = %1
  %3 = getelementptr inbounds nuw i8, ptr %0, i64 8
  %4 = load ptr, ptr %3, align 8, !tbaa !27
  %5 = tail call i32 @fputc(i32 noundef 253, ptr noundef %4)
  %6 = getelementptr inbounds nuw i8, ptr %0, i64 56
  %7 = load i64, ptr %6, align 8, !tbaa !65
  %8 = add nsw i64 %7, 1
  store i64 %8, ptr %6, align 8, !tbaa !65
  br label %9

9:                                                ; preds = %2, %1
  ret void
}